target datalayout = "e-m:e-p270:32:32-p271:32:32-p272:64:64-i64:64-i128:128-f80:128-n8:16:32:64-S128"
target triple = "x86_64-pc-linux-gnu"

%struct.Saig_Tsim_t_ = type { ptr, i32, ptr, ptr, i32, i32, i32, ptr, ptr, i32 }
%struct.Vec_Ptr_t_ = type { i32, i32, ptr }

; Function Attrs: inlinehint nounwind uwtable
define internal ptr @Saig_TsiNext(ptr noundef %0, i32 noundef %1) #4 {
  %3 = alloca ptr, align 8
  %4 = alloca i32, align 4
  store ptr %0, ptr %3, align 8, !tbaa !45
  store i32 %1, ptr %4, align 4, !tbaa !22
  %5 = load ptr, ptr %3, align 8, !tbaa !45
  %6 = load i32, ptr %4, align 4, !tbaa !22
  %7 = sext i32 %6 to i64
  %8 = getelementptr inbounds i32, ptr %5, i64 %7
  %9 = load ptr, ptr %8, align 8, !tbaa !45
  ret ptr %9
}

; Function Attrs: inlinehint nounwind uwtable
define internal ptr @Vec_PtrEntry(ptr noundef %0, i32 noundef %1) #4 {
  %3 = alloca ptr, align 8
  %4 = alloca i32, align 4
  store ptr %0, ptr %3, align 8, !tbaa !33
  store i32 %1, ptr %4, align 4, !tbaa !22
  %5 = load ptr, ptr %3, align 8, !tbaa !33
  %6 = getelementptr inbounds nuw %struct.Vec_Ptr_t_, ptr %5, i32 0, i32 2
  %7 = load ptr, ptr %6, align 8, !tbaa !37
  %8 = load i32, ptr %4, align 4, !tbaa !22
  %9 = sext i32 %8 to i64
  %10 = getelementptr inbounds ptr, ptr %7, i64 %9
  %11 = load ptr, ptr %10, align 8, !tbaa !51
  ret ptr %11
}

; Function Attrs: nounwind uwtable
define i32 @Saig_TsiStateHash(ptr noundef %0, i32 noundef %1, i32 noundef %2) #0 {
  %4 = alloca ptr, align 8
  %5 = alloca i32, align 4
  %6 = alloca i32, align 4
  %7 = alloca i32, align 4
  %8 = alloca i32, align 4
  store ptr %0, ptr %4, align 8, !tbaa !45
  store i32 %1, ptr %5, align 4, !tbaa !22
  store i32 %2, ptr %6, align 4, !tbaa !22
  call void @llvm.lifetime.start.p0(i64 4, ptr %7) #9
  call void @llvm.lifetime.start.p0(i64 4, ptr %8) #9
  store i32 0, ptr %7, align 4, !tbaa !22
  store i32 0, ptr %8, align 4, !tbaa !22
  br label %9

9:                                                ; preds = %27, %3
  %10 = load i32, ptr %8, align 4, !tbaa !22
  %11 = load i32, ptr %5, align 4, !tbaa !22
  %12 = icmp slt i32 %10, %11
  br i1 %12, label %13, label %30

13:                                               ; preds = %9
  %14 = load ptr, ptr %4, align 8, !tbaa !45
  %15 = load i32, ptr %8, align 4, !tbaa !22
  %16 = sext i32 %15 to i64
  %17 = getelementptr inbounds i32, ptr %14, i64 %16
  %18 = load i32, ptr %17, align 4, !tbaa !22
  %19 = load i32, ptr %8, align 4, !tbaa !22
  %20 = and i32 %19, 127
  %21 = sext i32 %20 to i64
  %22 = getelementptr inbounds [128 x i32], ptr @Saig_TsiStateHash.s_FPrimes, i64 0, i64 %21
  %23 = load i32, ptr %22, align 4, !tbaa !22
  %24 = mul i32 %18, %23
  %25 = load i32, ptr %7, align 4, !tbaa !22
  %26 = xor i32 %25, %24
  store i32 %26, ptr %7, align 4, !tbaa !22
  br label %27

27:                                               ; preds = %13
  %28 = load i32, ptr %8, align 4, !tbaa !22
  %29 = add nsw i32 %28, 1
  store i32 %29, ptr %8, align 4, !tbaa !22
  br label %9, !llvm.loop !46

30:                                               ; preds = %9
  %31 = load i32, ptr %7, align 4, !tbaa !22
  %32 = load i32, ptr %6, align 4, !tbaa !22
  %33 = urem i32 %31, %32
  call void @llvm.lifetime.end.p0(i64 4, ptr %8) #9
  call void @llvm.lifetime.end.p0(i64 4, ptr %7) #9
  ret i32 %33
}

; Function Attrs: inlinehint nounwind uwtable
define internal i32 @Vec_PtrSize(ptr noundef %0) #4 {
  %2 = alloca ptr, align 8
  store ptr %0, ptr %2, align 8, !tbaa !33
  %3 = load ptr, ptr %2, align 8, !tbaa !33
  %4 = getelementptr inbounds nuw %struct.Vec_Ptr_t_, ptr %3, i32 0, i32 1
  %5 = load i32, ptr %4, align 4, !tbaa !34
  ret i32 %5
}

; Function Attrs: nounwind uwtable
define i32 @Saig_TsiComputePrefix(ptr noundef %0, ptr noundef %1, i32 noundef %2) #0 {
  %4 = alloca i32, align 4
  %5 = alloca ptr, align 8
  %6 = alloca ptr, align 8
  %7 = alloca i32, align 4
  %8 = alloca ptr, align 8
  %9 = alloca ptr, align 8
  %10 = alloca i32, align 4
  %11 = alloca i32, align 4
  %12 = alloca i32, align 4
  store ptr %0, ptr %5, align 8, !tbaa !8
  store ptr %1, ptr %6, align 8, !tbaa !45
  store i32 %2, ptr %7, align 4, !tbaa !22
  call void @llvm.lifetime.start.p0(i64 8, ptr %8) #9
  call void @llvm.lifetime.start.p0(i64 8, ptr %9) #9
  call void @llvm.lifetime.start.p0(i64 4, ptr %10) #9
  call void @llvm.lifetime.start.p0(i64 4, ptr %11) #9
  %13 = load ptr, ptr %6, align 8, !tbaa !45
  %14 = load i32, ptr %7, align 4, !tbaa !22
  %15 = load ptr, ptr %5, align 8, !tbaa !8
  %16 = getelementptr inbounds nuw %struct.Saig_Tsim_t_, ptr %15, i32 0, i32 9
  %17 = load i32, ptr %16, align 8, !tbaa !20
  %18 = call i32 @Saig_TsiStateHash(ptr noundef %13, i32 noundef %14, i32 noundef %17)
  store i32 %18, ptr %10, align 4, !tbaa !22
  %19 = load ptr, ptr %5, align 8, !tbaa !8
  %20 = getelementptr inbounds nuw %struct.Saig_Tsim_t_, ptr %19, i32 0, i32 8
  %21 = load ptr, ptr %20, align 8, !tbaa !21
  %22 = load i32, ptr %10, align 4, !tbaa !22
  %23 = sext i32 %22 to i64
  %24 = getelementptr inbounds ptr, ptr %21, i64 %23
  %25 = load ptr, ptr %24, align 8, !tbaa !45
  store ptr %25, ptr %8, align 8, !tbaa !45
  br label %26

26:                                               ; preds = %65, %3
  %27 = load ptr, ptr %8, align 8, !tbaa !45
  %28 = icmp ne ptr %27, null
  br i1 %28, label %29, label %69

29:                                               ; preds = %26
  %30 = load ptr, ptr %8, align 8, !tbaa !45
  %31 = load ptr, ptr %6, align 8, !tbaa !45
  %32 = load i32, ptr %7, align 4, !tbaa !22
  %33 = sext i32 %32 to i64
  %34 = mul i64 4, %33
  %35 = call i32 @memcmp(ptr noundef %30, ptr noundef %31, i64 noundef %34) #11
  %36 = icmp ne i32 %35, 0
  br i1 %36, label %64, label %37

37:                                               ; preds = %29
  store i32 0, ptr %11, align 4, !tbaa !22
  br label %38

38:                                               ; preds = %60, %37
  %39 = load i32, ptr %11, align 4, !tbaa !22
  %40 = load ptr, ptr %5, align 8, !tbaa !8
  %41 = getelementptr inbounds nuw %struct.Saig_Tsim_t_, ptr %40, i32 0, i32 2
  %42 = load ptr, ptr %41, align 8, !tbaa !18
  %43 = call i32 @Vec_PtrSize(ptr noundef %42)
  %44 = icmp slt i32 %39, %43
  br i1 %44, label %45, label %51

45:                                               ; preds = %38
  %46 = load ptr, ptr %5, align 8, !tbaa !8
  %47 = getelementptr inbounds nuw %struct.Saig_Tsim_t_, ptr %46, i32 0, i32 2
  %48 = load ptr, ptr %47, align 8, !tbaa !18
  %49 = load i32, ptr %11, align 4, !tbaa !22
  %50 = call ptr @Vec_PtrEntry(ptr noundef %48, i32 noundef %49)
  store ptr %50, ptr %9, align 8, !tbaa !45
  br label %51

51:                                               ; preds = %45, %38
  %52 = phi i1 [ false, %38 ], [ true, %45 ]
  br i1 %52, label %53, label %63

53:                                               ; preds = %51
  %54 = load ptr, ptr %9, align 8, !tbaa !45
  %55 = load ptr, ptr %8, align 8, !tbaa !45
  %56 = icmp eq ptr %54, %55
  br i1 %56, label %57, label %59

57:                                               ; preds = %53
  %58 = load i32, ptr %11, align 4, !tbaa !22
  store i32 %58, ptr %4, align 4
  store i32 1, ptr %12, align 4
  br label %70

59:                                               ; preds = %53
  br label %60

60:                                               ; preds = %59
  %61 = load i32, ptr %11, align 4, !tbaa !22
  %62 = add nsw i32 %61, 1
  store i32 %62, ptr %11, align 4, !tbaa !22
  br label %38, !llvm.loop !59

63:                                               ; preds = %51
  store i32 -1, ptr %4, align 4
  store i32 1, ptr %12, align 4
  br label %70

64:                                               ; preds = %29
  br label %65

65:                                               ; preds = %64
  %66 = load ptr, ptr %8, align 8, !tbaa !45
  %67 = load i32, ptr %7, align 4, !tbaa !22
  %68 = call ptr @Saig_TsiNext(ptr noundef %66, i32 noundef %67)
  store ptr %68, ptr %8, align 8, !tbaa !45
  br label %26, !llvm.loop !60

69:                                               ; preds = %26
  store i32 -1, ptr %4, align 4
  store i32 1, ptr %12, align 4
  br label %70

70:                                               ; preds = %69, %63, %57
  call void @llvm.lifetime.end.p0(i64 4, ptr %11) #9
  call void @llvm.lifetime.end.p0(i64 4, ptr %10) #9
  call void @llvm.lifetime.end.p0(i64 8, ptr %9) #9
  call void @llvm.lifetime.end.p0(i64 8, ptr %8) #9
  %71 = load i32, ptr %4, align 4
  ret i32 %71
}

; Function Attrs: inlinehint nounwind uwtable
define internal ptr @Vec_PtrEntryLast(ptr noundef %0) #4 {
  %2 = alloca ptr, align 8
  store ptr %0, ptr %2, align 8, !tbaa !33
  %3 = load ptr, ptr %2, align 8, !tbaa !33
  %4 = getelementptr inbounds nuw %struct.Vec_Ptr_t_, ptr %3, i32 0, i32 2
  %5 = load ptr, ptr %4, align 8, !tbaa !37
  %6 = load ptr, ptr %2, align 8, !tbaa !33
  %7 = getelementptr inbounds nuw %struct.Vec_Ptr_t_, ptr %6, i32 0, i32 1
  %8 = load i32, ptr %7, align 4, !tbaa !34
  %9 = sub nsw i32 %8, 1
  %10 = sext i32 %9 to i64
  %11 = getelementptr inbounds ptr, ptr %5, i64 %10
  %12 = load ptr, ptr %11, align 8, !tbaa !51
  ret ptr %12
}

; Function Attrs: nounwind uwtable
define i32 @Saig_ManPhaseFrameNum(ptr noundef %0, ptr noundef %1) #0 {
  %3 = alloca i32, align 4
  %4 = alloca ptr, align 8
  %5 = alloca ptr, align 8
  %6 = alloca ptr, align 8
  %7 = alloca i32, align 4
  %8 = alloca i32, align 4
  %9 = alloca i32, align 4
  store ptr %0, ptr %4, align 8, !tbaa !3
  store ptr %1, ptr %5, align 8, !tbaa !42
  call void @llvm.lifetime.start.p0(i64 8, ptr %6) #9
  call void @llvm.lifetime.start.p0(i64 4, ptr %7) #9
  call void @llvm.lifetime.start.p0(i64 4, ptr %8) #9
  %10 = load ptr, ptr %4, align 8, !tbaa !3
  %11 = load ptr, ptr %5, align 8, !tbaa !42
  %12 = call ptr @Saig_ManReachableTernary(ptr noundef %10, ptr noundef %11, i32 noundef 0)
  store ptr %12, ptr %6, align 8, !tbaa !8
  %13 = load ptr, ptr %6, align 8, !tbaa !8
  %14 = icmp eq ptr %13, null
  br i1 %14, label %15, label %16

15:                                               ; preds = %2
  store i32 1, ptr %3, align 4
  store i32 1, ptr %9, align 4
  br label %35

16:                                               ; preds = %2
  %17 = load ptr, ptr %6, align 8, !tbaa !8
  %18 = load ptr, ptr %6, align 8, !tbaa !8
  %19 = getelementptr inbounds nuw %struct.Saig_Tsim_t_, ptr %18, i32 0, i32 2
  %20 = load ptr, ptr %19, align 8, !tbaa !18
  %21 = call ptr @Vec_PtrEntryLast(ptr noundef %20)
  %22 = load ptr, ptr %6, align 8, !tbaa !8
  %23 = getelementptr inbounds nuw %struct.Saig_Tsim_t_, ptr %22, i32 0, i32 1
  %24 = load i32, ptr %23, align 8, !tbaa !17
  %25 = call i32 @Saig_TsiComputePrefix(ptr noundef %17, ptr noundef %21, i32 noundef %24)
  store i32 %25, ptr %8, align 4, !tbaa !22
  %26 = load ptr, ptr %6, align 8, !tbaa !8
  %27 = getelementptr inbounds nuw %struct.Saig_Tsim_t_, ptr %26, i32 0, i32 2
  %28 = load ptr, ptr %27, align 8, !tbaa !18
  %29 = call i32 @Vec_PtrSize(ptr noundef %28)
  %30 = sub nsw i32 %29, 1
  %31 = load i32, ptr %8, align 4, !tbaa !22
  %32 = sub nsw i32 %30, %31
  store i32 %32, ptr %7, align 4, !tbaa !22
  %33 = load ptr, ptr %6, align 8, !tbaa !8
  call void @Saig_TsiStop(ptr noundef %33)
  %34 = load i32, ptr %7, align 4, !tbaa !22
  store i32 %34, ptr %3, align 4
  store i32 1, ptr %9, align 4
  br label %35

35:                                               ; preds = %16, %15
  call void @llvm.lifetime.end.p0(i64 4, ptr %8) #9
  call void @llvm.lifetime.end.p0(i64 4, ptr %7) #9
  call void @llvm.lifetime.end.p0(i64 8, ptr %6) #9
  %36 = load i32, ptr %3, align 4
  ret i32 %36
}