; Function Attrs: nounwind uwtable
define i32 @Saig_ManPhaseFrameNum(ptr noundef %0, ptr noundef %1) local_unnamed_addr #0 {
  %3 = tail call ptr @Saig_ManReachableTernary(ptr noundef %0, ptr noundef %1, i32 noundef 0)
  %4 = icmp eq ptr %3, null
  br i1 %4, label %45, label %5

5:                                                ; preds = %2
  %6 = getelementptr inbounds nuw i8, ptr %3, i64 16
  %7 = load ptr, ptr %6, align 8, !tbaa !29
  %8 = getelementptr i8, ptr %7, i64 4
  %.val11 = load i32, ptr %8, align 4, !tbaa !25
  %9 = getelementptr i8, ptr %7, i64 8
  %.val12 = load ptr, ptr %9, align 8, !tbaa !28
  %10 = sext i32 %.val11 to i64
  %11 = getelementptr ptr, ptr %.val12, i64 %10
  %12 = getelementptr i8, ptr %11, i64 -8
  %13 = load ptr, ptr %12, align 8, !tbaa !43
  %14 = getelementptr inbounds nuw i8, ptr %3, i64 8
  %15 = load i32, ptr %14, align 8, !tbaa !24
  %16 = getelementptr inbounds nuw i8, ptr %3, i64 64
  %17 = load i32, ptr %16, align 8, !tbaa !34
  %18 = icmp sgt i32 %15, 0
  br i1 %18, label %.lr.ph.preheader.i.i, label %Saig_TsiStateHash.exit.i

.lr.ph.preheader.i.i:                             ; preds = %5
  %wide.trip.count.i.i = zext nneg i32 %15 to i64
  br label %.lr.ph.i.i

.lr.ph.i.i:                                       ; preds = %.lr.ph.i.i, %.lr.ph.preheader.i.i
  %indvars.iv.i.i = phi i64 [ 0, %.lr.ph.preheader.i.i ], [ %indvars.iv.next.i.i, %.lr.ph.i.i ]
  %.089.i.i = phi i32 [ 0, %.lr.ph.preheader.i.i ], [ %25, %.lr.ph.i.i ]
  %19 = getelementptr inbounds nuw i32, ptr %13, i64 %indvars.iv.i.i
  %20 = load i32, ptr %19, align 4, !tbaa !39
  %21 = and i64 %indvars.iv.i.i, 127
  %22 = getelementptr inbounds nuw [128 x i32], ptr @Saig_TsiStateHash.s_FPrimes, i64 0, i64 %21
  %23 = load i32, ptr %22, align 4, !tbaa !39
  %24 = mul i32 %23, %20
  %25 = xor i32 %24, %.089.i.i
  %indvars.iv.next.i.i = add nuw nsw i64 %indvars.iv.i.i, 1
  %exitcond.not.i.i = icmp eq i64 %indvars.iv.next.i.i, %wide.trip.count.i.i
  br i1 %exitcond.not.i.i, label %Saig_TsiStateHash.exit.i, label %.lr.ph.i.i, !llvm.loop !40

Saig_TsiStateHash.exit.i:                         ; preds = %.lr.ph.i.i, %5
  %.08.lcssa.i.i = phi i32 [ 0, %5 ], [ %25, %.lr.ph.i.i ]
  %26 = urem i32 %.08.lcssa.i.i, %17
  %27 = getelementptr inbounds nuw i8, ptr %3, i64 56
  %28 = load ptr, ptr %27, align 8, !tbaa !35
  %29 = sext i32 %26 to i64
  %30 = getelementptr inbounds ptr, ptr %28, i64 %29
  %.02025.i = load ptr, ptr %30, align 8, !tbaa !52
  %.not26.i = icmp eq ptr %.02025.i, null
  br i1 %.not26.i, label %Saig_TsiComputePrefix.exit, label %.lr.ph.i

.lr.ph.i:                                         ; preds = %Saig_TsiStateHash.exit.i
  %31 = sext i32 %15 to i64
  %32 = shl nsw i64 %31, 2
  br label %33

33:                                               ; preds = %40, %.lr.ph.i
  %.02027.i = phi ptr [ %.02025.i, %.lr.ph.i ], [ %.020.i, %40 ]
  %bcmp.i = tail call i32 @bcmp(ptr nonnull %.02027.i, ptr readonly %13, i64 %32)
  %.not21.i = icmp eq i32 %bcmp.i, 0
  br i1 %.not21.i, label %.preheader.i, label %40

.preheader.i:                                     ; preds = %33
  %34 = icmp sgt i32 %.val11, 0
  br i1 %34, label %.lr.ph29.i, label %Saig_TsiComputePrefix.exit

.lr.ph29.i:                                       ; preds = %.preheader.i
  %wide.trip.count.i = zext nneg i32 %.val11 to i64
  br label %35

35:                                               ; preds = %39, %.lr.ph29.i
  %indvars.iv.i = phi i64 [ 0, %.lr.ph29.i ], [ %indvars.iv.next.i, %39 ]
  %36 = getelementptr inbounds nuw ptr, ptr %.val12, i64 %indvars.iv.i
  %37 = load ptr, ptr %36, align 8, !tbaa !43
  %38 = icmp eq ptr %37, %.02027.i
  br i1 %38, label %.critedge.loopexit.split.loop.exit37.i, label %39

39:                                               ; preds = %35
  %indvars.iv.next.i = add nuw nsw i64 %indvars.iv.i, 1
  %exitcond.not.i = icmp eq i64 %indvars.iv.next.i, %wide.trip.count.i
  br i1 %exitcond.not.i, label %Saig_TsiComputePrefix.exit, label %35, !llvm.loop !53

40:                                               ; preds = %33
  %41 = getelementptr inbounds i32, ptr %.02027.i, i64 %31
  %.020.i = load ptr, ptr %41, align 8, !tbaa !52
  %.not.i = icmp eq ptr %.020.i, null
  br i1 %.not.i, label %Saig_TsiComputePrefix.exit, label %33, !llvm.loop !54

.critedge.loopexit.split.loop.exit37.i:           ; preds = %35
  %42 = trunc nuw nsw i64 %indvars.iv.i to i32
  %43 = xor i32 %42, -1
  br label %Saig_TsiComputePrefix.exit

Saig_TsiComputePrefix.exit:                       ; preds = %40, %39, %Saig_TsiStateHash.exit.i, %.preheader.i, %.critedge.loopexit.split.loop.exit37.i
  %.019.i = phi i32 [ 0, %.preheader.i ], [ 0, %Saig_TsiStateHash.exit.i ], [ %43, %.critedge.loopexit.split.loop.exit37.i ], [ 0, %39 ], [ 0, %40 ]
  %44 = add i32 %.019.i, %.val11
  tail call void @Saig_TsiStop(ptr noundef nonnull %3)
  br label %45

45:                                               ; preds = %2, %Saig_TsiComputePrefix.exit
  %.0 = phi i32 [ %44, %Saig_TsiComputePrefix.exit ], [ 1, %2 ]
  ret i32 %.0
}